target datalayout = "e-m:e-p270:32:32-p271:32:32-p272:64:64-i64:64-i128:128-f80:128-n8:16:32:64-S128"
target triple = "x86_64-pc-linux-gnu"

%struct._lv_bar_t = type { %struct._lv_obj_t, i32, i32, i32, i32, %struct.lv_area_t, i8, %struct._lv_bar_anim_t, %struct._lv_bar_anim_t, i8 }
%struct._lv_obj_t = type { ptr, ptr, ptr, ptr, ptr, %struct.lv_area_t, i32, i16, i16 }
%struct.lv_area_t = type { i32, i32, i32, i32 }
%struct._lv_bar_anim_t = type { ptr, i32, i32, i32 }

; Function Attrs: nounwind uwtable
define i32 @lv_bar_get_start_value(ptr noundef %0) #0 {
  %2 = alloca i32, align 4
  %3 = alloca ptr, align 8
  %4 = alloca ptr, align 8
  %5 = alloca i32, align 4
  store ptr %0, ptr %3, align 8, !tbaa !3
  br label %6

6:                                                ; preds = %1
  br label %7

7:                                                ; preds = %6
  call void @llvm.lifetime.start.p0(i64 8, ptr %4) #5
  %8 = load ptr, ptr %3, align 8, !tbaa !3
  store ptr %8, ptr %4, align 8, !tbaa !3
  %9 = load ptr, ptr %4, align 8, !tbaa !3
  %10 = getelementptr inbounds nuw %struct._lv_bar_t, ptr %9, i32 0, i32 9
  %11 = load i8, ptr %10, align 8
  %12 = and i8 %11, 7
  %13 = zext i8 %12 to i32
  %14 = icmp ne i32 %13, 2
  br i1 %14, label %15, label %19

15:                                               ; preds = %7
  %16 = load ptr, ptr %4, align 8, !tbaa !3
  %17 = getelementptr inbounds nuw %struct._lv_bar_t, ptr %16, i32 0, i32 2
  %18 = load i32, ptr %17, align 4, !tbaa !7
  store i32 %18, ptr %2, align 4
  store i32 1, ptr %5, align 4
  br label %36

19:                                               ; preds = %7
  %20 = load ptr, ptr %4, align 8, !tbaa !3
  %21 = getelementptr inbounds nuw %struct._lv_bar_t, ptr %20, i32 0, i32 8
  %22 = getelementptr inbounds nuw %struct._lv_bar_anim_t, ptr %21, i32 0, i32 3
  %23 = load i32, ptr %22, align 8, !tbaa !31
  %24 = icmp ne i32 %23, -1
  br i1 %24, label %25, label %30

25:                                               ; preds = %19
  %26 = load ptr, ptr %4, align 8, !tbaa !3
  %27 = getelementptr inbounds nuw %struct._lv_bar_t, ptr %26, i32 0, i32 8
  %28 = getelementptr inbounds nuw %struct._lv_bar_anim_t, ptr %27, i32 0, i32 2
  %29 = load i32, ptr %28, align 4, !tbaa !32
  br label %34

30:                                               ; preds = %19
  %31 = load ptr, ptr %4, align 8, !tbaa !3
  %32 = getelementptr inbounds nuw %struct._lv_bar_t, ptr %31, i32 0, i32 4
  %33 = load i32, ptr %32, align 4, !tbaa !16
  br label %34

34:                                               ; preds = %30, %25
  %35 = phi i32 [ %29, %25 ], [ %33, %30 ]
  store i32 %35, ptr %2, align 4
  store i32 1, ptr %5, align 4
  br label %36

36:                                               ; preds = %34, %15
  call void @llvm.lifetime.end.p0(i64 8, ptr %4) #5
  %37 = load i32, ptr %2, align 4
  ret i32 %37
}