; Function Attrs: mustprogress nofree norecurse nosync nounwind willreturn memory(argmem: read) uwtable
define i32 @lv_bar_get_start_value(ptr nocapture noundef readonly %0) local_unnamed_addr #3 {
  %2 = getelementptr inbounds nuw i8, ptr %0, i64 152
  %3 = load i8, ptr %2, align 8
  %4 = and i8 %3, 7
  %.not = icmp eq i8 %4, 2
  br i1 %.not, label %5, label %8

5:                                                ; preds = %1
  %6 = getelementptr inbounds nuw i8, ptr %0, i64 144
  %7 = load i32, ptr %6, align 8, !tbaa !33
  %.not6 = icmp eq i32 %7, -1
  %.in.v = select i1 %.not6, i64 76, i64 140
  br label %8

8:                                                ; preds = %1, %5
  %.in.v.sink = phi i64 [ %.in.v, %5 ], [ 68, %1 ]
  %.in = getelementptr inbounds nuw i8, ptr %0, i64 %.in.v.sink
  %.0 = load i32, ptr %.in, align 4, !tbaa !22
  ret i32 %.0
}